target datalayout = "e-m:e-p270:32:32-p271:32:32-p272:64:64-i64:64-i128:128-f80:128-n8:16:32:64-S128"
target triple = "x86_64-pc-linux-gnu"

%"class.icu_77::CollationFastLatinBuilder" = type <{ %"class.icu_77::UObject", i64, i64, [448 x [2 x i64]], %"class.icu_77::UVector64", %"class.icu_77::UVector64", ptr, [4 x i32], i32, i32, i32, i32, i8, [7 x i8], %"class.icu_77::UnicodeString", i32, [4 x i8] }>
%"class.icu_77::UObject" = type { ptr }
%"class.icu_77::UVector64" = type { %"class.icu_77::UObject", i32, i32, i32, ptr }
%"class.icu_77::UnicodeString" = type { %"class.icu_77::Replaceable", %"union.icu_77::UnicodeString::StackBufferOrFields" }
%"class.icu_77::Replaceable" = type { %"class.icu_77::UObject" }
%"union.icu_77::UnicodeString::StackBufferOrFields" = type { %struct.anon.0, [32 x i8] }
%struct.anon.0 = type { i16, i32, i32, ptr }

; Function Attrs: inlinehint mustprogress uwtable
define linkonce_odr noundef nonnull align 8 dereferenceable(64) ptr @_ZN6icu_7713UnicodeString6appendEDs(ptr noundef nonnull align 8 dereferenceable(64) %0, i16 noundef zeroext %1) #3 comdat align 2 {
  %3 = alloca ptr, align 8
  %4 = alloca i16, align 2
  store ptr %0, ptr %3, align 8, !tbaa !31
  store i16 %1, ptr %4, align 2, !tbaa !41
  %5 = load ptr, ptr %3, align 8
  %6 = call noundef nonnull align 8 dereferenceable(64) ptr @_ZN6icu_7713UnicodeString8doAppendEPKDsii(ptr noundef nonnull align 8 dereferenceable(64) %5, ptr noundef %4, i32 noundef 0, i32 noundef 1)
  ret ptr %6
}

; Function Attrs: inlinehint mustprogress nounwind uwtable
define internal noundef signext i8 @_ZL9U_FAILURE10UErrorCode(i32 noundef %0) #1 {
  %2 = alloca i32, align 4
  store i32 %0, ptr %2, align 4, !tbaa !36
  %3 = load i32, ptr %2, align 4, !tbaa !36
  %4 = icmp sgt i32 %3, 0
  %5 = zext i1 %4 to i8
  ret i8 %5
}

; Function Attrs: mustprogress uwtable
define noundef signext i8 @_ZN6icu_7725CollationFastLatinBuilder10loadGroupsERKNS_13CollationDataER10UErrorCode(ptr noundef nonnull align 8 dereferenceable(7372) %0, ptr noundef nonnull align 8 dereferenceable(140) %1, ptr noundef nonnull align 4 dereferenceable(4) %2) #0 align 2 {
  %4 = alloca i8, align 1
  %5 = alloca ptr, align 8
  %6 = alloca ptr, align 8
  %7 = alloca ptr, align 8
  %8 = alloca i32, align 4
  %9 = alloca i32, align 4
  %10 = alloca i32, align 4
  store ptr %0, ptr %5, align 8, !tbaa !3
  store ptr %1, ptr %6, align 8, !tbaa !34
  store ptr %2, ptr %7, align 8, !tbaa !8
  %11 = load ptr, ptr %5, align 8
  %12 = load ptr, ptr %7, align 8, !tbaa !8
  %13 = load i32, ptr %12, align 4, !tbaa !36
  %14 = call noundef signext i8 @_ZL9U_FAILURE10UErrorCode(i32 noundef %13)
  %15 = icmp ne i8 %14, 0
  br i1 %15, label %16, label %17

16:                                               ; preds = %3
  store i8 0, ptr %4, align 1
  br label %74

17:                                               ; preds = %3
  %18 = getelementptr inbounds nuw %"class.icu_77::CollationFastLatinBuilder", ptr %11, i32 0, i32 15
  store i32 5, ptr %18, align 8, !tbaa !28
  call void @llvm.lifetime.start.p0(i64 4, ptr %8) #9
  %19 = getelementptr inbounds nuw %"class.icu_77::CollationFastLatinBuilder", ptr %11, i32 0, i32 15
  %20 = load i32, ptr %19, align 8, !tbaa !28
  %21 = or i32 512, %20
  store i32 %21, ptr %8, align 4, !tbaa !38
  %22 = getelementptr inbounds nuw %"class.icu_77::CollationFastLatinBuilder", ptr %11, i32 0, i32 14
  %23 = load i32, ptr %8, align 4, !tbaa !38
  %24 = trunc i32 %23 to i16
  %25 = call noundef nonnull align 8 dereferenceable(64) ptr @_ZN6icu_7713UnicodeString6appendEDs(ptr noundef nonnull align 8 dereferenceable(64) %22, i16 noundef zeroext %24)
  call void @llvm.lifetime.start.p0(i64 4, ptr %9) #9
  store i32 0, ptr %9, align 4, !tbaa !38
  br label %26

26:                                               ; preds = %49, %17
  %27 = load i32, ptr %9, align 4, !tbaa !38
  %28 = icmp slt i32 %27, 4
  br i1 %28, label %30, label %29

29:                                               ; preds = %26
  store i32 2, ptr %10, align 4
  br label %52

30:                                               ; preds = %26
  %31 = load ptr, ptr %6, align 8, !tbaa !34
  %32 = load i32, ptr %9, align 4, !tbaa !38
  %33 = add nsw i32 4096, %32
  %34 = call noundef i32 @_ZNK6icu_7713CollationData22getLastPrimaryForGroupEi(ptr noundef nonnull align 8 dereferenceable(140) %31, i32 noundef %33)
  %35 = getelementptr inbounds nuw %"class.icu_77::CollationFastLatinBuilder", ptr %11, i32 0, i32 7
  %36 = load i32, ptr %9, align 4, !tbaa !38
  %37 = sext i32 %36 to i64
  %38 = getelementptr inbounds [4 x i32], ptr %35, i64 0, i64 %37
  store i32 %34, ptr %38, align 4, !tbaa !38
  %39 = getelementptr inbounds nuw %"class.icu_77::CollationFastLatinBuilder", ptr %11, i32 0, i32 7
  %40 = load i32, ptr %9, align 4, !tbaa !38
  %41 = sext i32 %40 to i64
  %42 = getelementptr inbounds [4 x i32], ptr %39, i64 0, i64 %41
  %43 = load i32, ptr %42, align 4, !tbaa !38
  %44 = icmp eq i32 %43, 0
  br i1 %44, label %45, label %46

45:                                               ; preds = %30
  store i8 0, ptr %4, align 1
  store i32 1, ptr %10, align 4
  br label %52

46:                                               ; preds = %30
  %47 = getelementptr inbounds nuw %"class.icu_77::CollationFastLatinBuilder", ptr %11, i32 0, i32 14
  %48 = call noundef nonnull align 8 dereferenceable(64) ptr @_ZN6icu_7713UnicodeString6appendEDs(ptr noundef nonnull align 8 dereferenceable(64) %47, i16 noundef zeroext 0)
  br label %49

49:                                               ; preds = %46
  %50 = load i32, ptr %9, align 4, !tbaa !38
  %51 = add nsw i32 %50, 1
  store i32 %51, ptr %9, align 4, !tbaa !38
  br label %26, !llvm.loop !39

52:                                               ; preds = %45, %29
  call void @llvm.lifetime.end.p0(i64 4, ptr %9) #9
  %53 = load i32, ptr %10, align 4
  switch i32 %53, label %73 [
    i32 2, label %54
  ]

54:                                               ; preds = %52
  %55 = load ptr, ptr %6, align 8, !tbaa !34
  %56 = call noundef i32 @_ZNK6icu_7713CollationData23getFirstPrimaryForGroupEi(ptr noundef nonnull align 8 dereferenceable(140) %55, i32 noundef 4100)
  %57 = getelementptr inbounds nuw %"class.icu_77::CollationFastLatinBuilder", ptr %11, i32 0, i32 8
  store i32 %56, ptr %57, align 8, !tbaa !23
  %58 = load ptr, ptr %6, align 8, !tbaa !34
  %59 = call noundef i32 @_ZNK6icu_7713CollationData23getFirstPrimaryForGroupEi(ptr noundef nonnull align 8 dereferenceable(140) %58, i32 noundef 25)
  %60 = getelementptr inbounds nuw %"class.icu_77::CollationFastLatinBuilder", ptr %11, i32 0, i32 9
  store i32 %59, ptr %60, align 4, !tbaa !24
  %61 = load ptr, ptr %6, align 8, !tbaa !34
  %62 = call noundef i32 @_ZNK6icu_7713CollationData22getLastPrimaryForGroupEi(ptr noundef nonnull align 8 dereferenceable(140) %61, i32 noundef 25)
  %63 = getelementptr inbounds nuw %"class.icu_77::CollationFastLatinBuilder", ptr %11, i32 0, i32 10
  store i32 %62, ptr %63, align 8, !tbaa !25
  %64 = getelementptr inbounds nuw %"class.icu_77::CollationFastLatinBuilder", ptr %11, i32 0, i32 8
  %65 = load i32, ptr %64, align 8, !tbaa !23
  %66 = icmp eq i32 %65, 0
  br i1 %66, label %71, label %67

67:                                               ; preds = %54
  %68 = getelementptr inbounds nuw %"class.icu_77::CollationFastLatinBuilder", ptr %11, i32 0, i32 9
  %69 = load i32, ptr %68, align 4, !tbaa !24
  %70 = icmp eq i32 %69, 0
  br i1 %70, label %71, label %72

71:                                               ; preds = %67, %54
  store i8 0, ptr %4, align 1
  store i32 1, ptr %10, align 4
  br label %73

72:                                               ; preds = %67
  store i8 1, ptr %4, align 1
  store i32 1, ptr %10, align 4
  br label %73

73:                                               ; preds = %72, %71, %52
  call void @llvm.lifetime.end.p0(i64 4, ptr %8) #9
  br label %74

74:                                               ; preds = %73, %16
  %75 = load i8, ptr %4, align 1
  ret i8 %75
}