; Function Attrs: mustprogress uwtable
define noundef signext range(i8 0, 2) i8 @_ZN6icu_7725CollationFastLatinBuilder10loadGroupsERKNS_13CollationDataER10UErrorCode(ptr noundef nonnull align 8 dereferenceable(7372) %0, ptr noundef nonnull align 8 dereferenceable(140) %1, ptr noundef nonnull readonly align 4 captures(none) dereferenceable(4) %2) local_unnamed_addr #0 align 2 {
  %4 = alloca i16, align 2
  %5 = alloca i16, align 2
  %6 = load i32, ptr %2, align 4, !tbaa !20
  %7 = icmp slt i32 %6, 1
  br i1 %7, label %8, label %.loopexit

8:                                                ; preds = %3
  %9 = getelementptr inbounds nuw i8, ptr %0, i64 7368
  store i32 5, ptr %9, align 8, !tbaa !19
  %10 = getelementptr inbounds nuw i8, ptr %0, i64 7304
  call void @llvm.lifetime.start.p0(i64 2, ptr nonnull %5)
  store i16 517, ptr %5, align 2, !tbaa !26
  %11 = call noundef nonnull align 8 dereferenceable(64) ptr @_ZN6icu_7713UnicodeString8doAppendEPKDsii(ptr noundef nonnull align 8 dereferenceable(64) %10, ptr noundef nonnull %5, i32 noundef 0, i32 noundef 1)
  call void @llvm.lifetime.end.p0(i64 2, ptr nonnull %5)
  %12 = getelementptr inbounds nuw i8, ptr %0, i64 7264
  br label %13

13:                                               ; preds = %8, %19
  %indvars.iv = phi i64 [ 0, %8 ], [ %indvars.iv.next, %19 ]
  %14 = trunc i64 %indvars.iv to i32
  %15 = or i32 %14, 4096
  %16 = call noundef i32 @_ZNK6icu_7713CollationData22getLastPrimaryForGroupEi(ptr noundef nonnull align 8 dereferenceable(140) %1, i32 noundef %15)
  %17 = getelementptr inbounds nuw [4 x i32], ptr %12, i64 0, i64 %indvars.iv
  store i32 %16, ptr %17, align 4, !tbaa !28
  %18 = icmp eq i32 %16, 0
  br i1 %18, label %.loopexit, label %19

19:                                               ; preds = %13
  call void @llvm.lifetime.start.p0(i64 2, ptr nonnull %4)
  store i16 0, ptr %4, align 2, !tbaa !26
  %20 = call noundef nonnull align 8 dereferenceable(64) ptr @_ZN6icu_7713UnicodeString8doAppendEPKDsii(ptr noundef nonnull align 8 dereferenceable(64) %10, ptr noundef nonnull %4, i32 noundef 0, i32 noundef 1)
  call void @llvm.lifetime.end.p0(i64 2, ptr nonnull %4)
  %indvars.iv.next = add nuw nsw i64 %indvars.iv, 1
  %exitcond = icmp eq i64 %indvars.iv.next, 4
  br i1 %exitcond, label %.critedge, label %13, !llvm.loop !29

.critedge:                                        ; preds = %19
  %21 = call noundef i32 @_ZNK6icu_7713CollationData23getFirstPrimaryForGroupEi(ptr noundef nonnull align 8 dereferenceable(140) %1, i32 noundef 4100)
  %22 = getelementptr inbounds nuw i8, ptr %0, i64 7280
  store i32 %21, ptr %22, align 8, !tbaa !22
  %23 = call noundef i32 @_ZNK6icu_7713CollationData23getFirstPrimaryForGroupEi(ptr noundef nonnull align 8 dereferenceable(140) %1, i32 noundef 25)
  %24 = getelementptr inbounds nuw i8, ptr %0, i64 7284
  store i32 %23, ptr %24, align 4, !tbaa !25
  %25 = call noundef i32 @_ZNK6icu_7713CollationData22getLastPrimaryForGroupEi(ptr noundef nonnull align 8 dereferenceable(140) %1, i32 noundef 25)
  %26 = getelementptr inbounds nuw i8, ptr %0, i64 7288
  store i32 %25, ptr %26, align 8, !tbaa !31
  %27 = load i32, ptr %22, align 8, !tbaa !22
  %28 = icmp ne i32 %27, 0
  %29 = load i32, ptr %24, align 4
  %30 = icmp ne i32 %29, 0
  %or.cond.not = select i1 %28, i1 %30, i1 false
  %spec.select = zext i1 %or.cond.not to i8
  br label %.loopexit

.loopexit:                                        ; preds = %13, %.critedge, %3
  %.014 = phi i8 [ 0, %3 ], [ %spec.select, %.critedge ], [ 0, %13 ]
  ret i8 %.014
}